target datalayout = "e-m:e-p270:32:32-p271:32:32-p272:64:64-i64:64-i128:128-f80:128-n8:16:32:64-S128"
target triple = "x86_64-pc-linux-gnu"

%struct.stepd_step_rec_t = type { ptr, ptr, i32, %union.pthread_cond_t, %union.pthread_mutex_t, %struct.slurm_step_id_msg, i32, i32, i32, i32, i32, i32, ptr, ptr, i32, i32, ptr, i32, i32, i32, i32, i32, ptr, ptr, ptr, ptr, i32, i32, i64, i64, i16, i32, ptr, ptr, ptr, i32, ptr, i32, ptr, i32, ptr, i16, i32, i32, i32, ptr, i32, ptr, ptr, ptr, ptr, i32, i32, ptr, ptr, i8, i8, i8, i64, i32, ptr, ptr, ptr, ptr, ptr, ptr, ptr, ptr, ptr, ptr, i32, i32, ptr, i8, %union.pthread_cond_t, %union.pthread_mutex_t, i64, ptr, i32, i32, i32, ptr, i64, ptr, ptr, i8, ptr, i16, ptr, ptr, ptr, ptr, ptr, ptr, i64, ptr, i64, ptr, i16, i8, i16, i32, ptr, i16, ptr, ptr, i16, ptr, ptr, ptr, i8 }
%struct.slurm_step_id_msg = type { i64, i32, i32, i32 }
%union.pthread_cond_t = type { %struct.__pthread_cond_s }
%struct.__pthread_cond_s = type { %union.__atomic_wide_counter, %union.__atomic_wide_counter, [2 x i32], [2 x i32], i32, i32, [2 x i32] }
%union.__atomic_wide_counter = type { i64 }
%union.pthread_mutex_t = type { %struct.__pthread_mutex_s }
%struct.__pthread_mutex_s = type { i32, i32, i32, i32, i32, i16, i16, %struct.__pthread_internal_list }
%struct.__pthread_internal_list = type { ptr, ptr }
%struct.srun_info_t = type { ptr, %struct.sockaddr_storage, %struct.sockaddr_storage, i32, i16 }
%struct.sockaddr_storage = type { i16, [118 x i8], i64 }
%struct.io_init_msg_t = type { i16, ptr, i32, i32, i32 }

@.str.134 = private unnamed_addr constant [32 x i8] c"Couldn't sent slurm_io_init_msg\00", align 1

; Function Attrs: nounwind uwtable
define internal i32 @_send_io_init_msg(i32 noundef %0, ptr noundef %1, ptr noundef %2, i1 noundef zeroext %3) #0 {
  %5 = alloca i32, align 4
  %6 = alloca i32, align 4
  %7 = alloca ptr, align 8
  %8 = alloca ptr, align 8
  %9 = alloca i8, align 1
  %10 = alloca %struct.io_init_msg_t, align 8
  %11 = alloca i32, align 4
  store i32 %0, ptr %6, align 4
  store ptr %1, ptr %7, align 8
  store ptr %2, ptr %8, align 8
  %12 = zext i1 %3 to i8
  store i8 %12, ptr %9, align 1
  call void @llvm.lifetime.start.p0(i64 32, ptr %10) #10
  %13 = load ptr, ptr %7, align 8
  %14 = getelementptr inbounds nuw %struct.srun_info_t, ptr %13, i32 0, i32 0
  %15 = load ptr, ptr %14, align 8
  %16 = call ptr @xstrdup(ptr noundef %15)
  %17 = getelementptr inbounds nuw %struct.io_init_msg_t, ptr %10, i32 0, i32 1
  store ptr %16, ptr %17, align 8
  %18 = load ptr, ptr %8, align 8
  %19 = getelementptr inbounds nuw %struct.stepd_step_rec_t, ptr %18, i32 0, i32 10
  %20 = load i32, ptr %19, align 8
  %21 = getelementptr inbounds nuw %struct.io_init_msg_t, ptr %10, i32 0, i32 2
  store i32 %20, ptr %21, align 8
  %22 = load ptr, ptr %7, align 8
  %23 = getelementptr inbounds nuw %struct.srun_info_t, ptr %22, i32 0, i32 4
  %24 = load i16, ptr %23, align 4
  %25 = getelementptr inbounds nuw %struct.io_init_msg_t, ptr %10, i32 0, i32 0
  store i16 %24, ptr %25, align 8
  %26 = load i8, ptr %9, align 1, !range !8, !noundef !9
  %27 = trunc i8 %26 to i1
  br i1 %27, label %41, label %28

28:                                               ; preds = %4
  %29 = load ptr, ptr %8, align 8
  %30 = getelementptr inbounds nuw %struct.stepd_step_rec_t, ptr %29, i32 0, i32 5
  %31 = getelementptr inbounds nuw %struct.slurm_step_id_msg, ptr %30, i32 0, i32 2
  %32 = load i32, ptr %31, align 4
  %33 = icmp ne i32 %32, -2
  br i1 %33, label %34, label %41

34:                                               ; preds = %28
  %35 = load ptr, ptr %8, align 8
  %36 = getelementptr inbounds nuw %struct.stepd_step_rec_t, ptr %35, i32 0, i32 17
  %37 = load i32, ptr %36, align 8
  %38 = getelementptr inbounds nuw %struct.io_init_msg_t, ptr %10, i32 0, i32 2
  %39 = load i32, ptr %38, align 8
  %40 = add i32 %39, %37
  store i32 %40, ptr %38, align 8
  br label %41

41:                                               ; preds = %34, %28, %4
  %42 = load ptr, ptr %8, align 8
  %43 = getelementptr inbounds nuw %struct.stepd_step_rec_t, ptr %42, i32 0, i32 66
  %44 = load ptr, ptr %43, align 8
  %45 = icmp eq ptr %44, null
  br i1 %45, label %46, label %48

46:                                               ; preds = %41
  %47 = getelementptr inbounds nuw %struct.io_init_msg_t, ptr %10, i32 0, i32 3
  store i32 0, ptr %47, align 4
  br label %54

48:                                               ; preds = %41
  %49 = load ptr, ptr %8, align 8
  %50 = getelementptr inbounds nuw %struct.stepd_step_rec_t, ptr %49, i32 0, i32 66
  %51 = load ptr, ptr %50, align 8
  %52 = call i32 @list_count(ptr noundef %51)
  %53 = getelementptr inbounds nuw %struct.io_init_msg_t, ptr %10, i32 0, i32 3
  store i32 %52, ptr %53, align 4
  br label %54

54:                                               ; preds = %48, %46
  %55 = load ptr, ptr %8, align 8
  %56 = getelementptr inbounds nuw %struct.stepd_step_rec_t, ptr %55, i32 0, i32 67
  %57 = load ptr, ptr %56, align 8
  %58 = icmp eq ptr %57, null
  br i1 %58, label %59, label %61

59:                                               ; preds = %54
  %60 = getelementptr inbounds nuw %struct.io_init_msg_t, ptr %10, i32 0, i32 4
  store i32 0, ptr %60, align 8
  br label %67

61:                                               ; preds = %54
  %62 = load ptr, ptr %8, align 8
  %63 = getelementptr inbounds nuw %struct.stepd_step_rec_t, ptr %62, i32 0, i32 67
  %64 = load ptr, ptr %63, align 8
  %65 = call i32 @list_count(ptr noundef %64)
  %66 = getelementptr inbounds nuw %struct.io_init_msg_t, ptr %10, i32 0, i32 4
  store i32 %65, ptr %66, align 8
  br label %67

67:                                               ; preds = %61, %59
  %68 = load i32, ptr %6, align 4
  %69 = call i32 @io_init_msg_write_to_fd(i32 noundef %68, ptr noundef %10)
  %70 = icmp ne i32 %69, 0
  br i1 %70, label %71, label %74

71:                                               ; preds = %67
  %72 = call i32 (ptr, ...) @error(ptr noundef @.str.134)
  %73 = getelementptr inbounds nuw %struct.io_init_msg_t, ptr %10, i32 0, i32 1
  call void @slurm_xfree(ptr noundef %73)
  store i32 -1, ptr %5, align 4
  store i32 1, ptr %11, align 4
  br label %76

74:                                               ; preds = %67
  %75 = getelementptr inbounds nuw %struct.io_init_msg_t, ptr %10, i32 0, i32 1
  call void @slurm_xfree(ptr noundef %75)
  store i32 0, ptr %5, align 4
  store i32 1, ptr %11, align 4
  br label %76

76:                                               ; preds = %74, %71
  call void @llvm.lifetime.end.p0(i64 32, ptr %10) #10
  %77 = load i32, ptr %5, align 4
  ret i32 %77
}