; Function Attrs: nounwind uwtable
define internal fastcc void @_send_io_init_msg(i32 noundef range(i32 0, -2147483648) %0, ptr noundef readonly captures(none) %1, ptr noundef readonly captures(none) %2, i1 noundef zeroext %3) unnamed_addr #0 {
  %5 = alloca %struct.io_init_msg_t, align 8
  call void @llvm.lifetime.start.p0(i64 32, ptr nonnull %5) #11
  %6 = load ptr, ptr %1, align 8
  %7 = tail call ptr @xstrdup(ptr noundef %6) #11
  %8 = getelementptr inbounds nuw i8, ptr %5, i64 8
  store ptr %7, ptr %8, align 8
  %9 = getelementptr inbounds nuw i8, ptr %2, i64 152
  %10 = load i32, ptr %9, align 8
  %11 = getelementptr inbounds nuw i8, ptr %5, i64 16
  store i32 %10, ptr %11, align 8
  %12 = getelementptr inbounds nuw i8, ptr %1, i64 268
  %13 = load i16, ptr %12, align 4
  store i16 %13, ptr %5, align 8
  br i1 %3, label %21, label %14

14:                                               ; preds = %4
  %15 = getelementptr inbounds nuw i8, ptr %2, i64 124
  %16 = load i32, ptr %15, align 4
  %.not = icmp eq i32 %16, -2
  br i1 %.not, label %21, label %17

17:                                               ; preds = %14
  %18 = getelementptr inbounds nuw i8, ptr %2, i64 192
  %19 = load i32, ptr %18, align 8
  %20 = add i32 %19, %10
  store i32 %20, ptr %11, align 8
  br label %21

21:                                               ; preds = %17, %14, %4
  %22 = getelementptr inbounds nuw i8, ptr %2, i64 512
  %23 = load ptr, ptr %22, align 8
  %24 = icmp eq ptr %23, null
  br i1 %24, label %27, label %25

25:                                               ; preds = %21
  %26 = tail call i32 @list_count(ptr noundef nonnull %23) #11
  br label %27

27:                                               ; preds = %21, %25
  %.sink = phi i32 [ %26, %25 ], [ 0, %21 ]
  %28 = getelementptr inbounds nuw i8, ptr %5, i64 20
  store i32 %.sink, ptr %28, align 4
  %29 = getelementptr inbounds nuw i8, ptr %2, i64 520
  %30 = load ptr, ptr %29, align 8
  %31 = icmp eq ptr %30, null
  br i1 %31, label %34, label %32

32:                                               ; preds = %27
  %33 = tail call i32 @list_count(ptr noundef nonnull %30) #11
  br label %34

34:                                               ; preds = %27, %32
  %.sink14 = phi i32 [ %33, %32 ], [ 0, %27 ]
  %35 = getelementptr inbounds nuw i8, ptr %5, i64 24
  store i32 %.sink14, ptr %35, align 8
  %36 = call i32 @io_init_msg_write_to_fd(i32 noundef %0, ptr noundef nonnull %5) #11
  %.not13 = icmp eq i32 %36, 0
  br i1 %.not13, label %39, label %37

37:                                               ; preds = %34
  %38 = call i32 (ptr, ...) @error(ptr noundef nonnull @.str.134) #11
  br label %39

39:                                               ; preds = %34, %37
  call void @slurm_xfree(ptr noundef nonnull %8) #11
  call void @llvm.lifetime.end.p0(i64 32, ptr nonnull %5) #11
  ret void
}